target datalayout = "e-m:e-p270:32:32-p271:32:32-p272:64:64-i64:64-i128:128-f80:128-n8:16:32:64-S128"
target triple = "x86_64-pc-linux-gnu"

@cookie_initialized = internal global i32 0, align 4

; Function Attrs: nounwind uwtable
define i32 @verify_stateless_cookie_callback(ptr noundef %0, ptr noundef %1, i64 noundef %2) #0 {
  %4 = alloca i32, align 4
  %5 = alloca ptr, align 8
  %6 = alloca ptr, align 8
  %7 = alloca i64, align 8
  %8 = alloca [64 x i8], align 16
  %9 = alloca i64, align 8
  %10 = alloca i32, align 4
  store ptr %0, ptr %5, align 8, !tbaa !27
  store ptr %1, ptr %6, align 8, !tbaa !21
  store i64 %2, ptr %7, align 8, !tbaa !38
  call void @llvm.lifetime.start.p0(i64 64, ptr %8) #10
  call void @llvm.lifetime.start.p0(i64 8, ptr %9) #10
  %11 = load i32, ptr @cookie_initialized, align 4, !tbaa !3
  %12 = icmp ne i32 %11, 0
  br i1 %12, label %13, label %29

13:                                               ; preds = %3
  %14 = load ptr, ptr %5, align 8, !tbaa !27
  %15 = getelementptr inbounds [64 x i8], ptr %8, i64 0, i64 0
  %16 = call i32 @generate_stateless_cookie_callback(ptr noundef %14, ptr noundef %15, ptr noundef %9)
  %17 = icmp ne i32 %16, 0
  br i1 %17, label %18, label %29

18:                                               ; preds = %13
  %19 = load i64, ptr %7, align 8, !tbaa !38
  %20 = load i64, ptr %9, align 8, !tbaa !38
  %21 = icmp eq i64 %19, %20
  br i1 %21, label %22, label %29

22:                                               ; preds = %18
  %23 = getelementptr inbounds [64 x i8], ptr %8, i64 0, i64 0
  %24 = load ptr, ptr %6, align 8, !tbaa !21
  %25 = load i64, ptr %9, align 8, !tbaa !38
  %26 = call i32 @memcmp(ptr noundef %23, ptr noundef %24, i64 noundef %25) #12
  %27 = icmp eq i32 %26, 0
  br i1 %27, label %28, label %29

28:                                               ; preds = %22
  store i32 1, ptr %4, align 4
  store i32 1, ptr %10, align 4
  br label %30

29:                                               ; preds = %22, %18, %13, %3
  store i32 0, ptr %4, align 4
  store i32 1, ptr %10, align 4
  br label %30

30:                                               ; preds = %29, %28
  call void @llvm.lifetime.end.p0(i64 8, ptr %9) #10
  call void @llvm.lifetime.end.p0(i64 64, ptr %8) #10
  %31 = load i32, ptr %4, align 4
  ret i32 %31
}

; Function Attrs: nounwind uwtable
define i32 @verify_cookie_callback(ptr noundef %0, ptr noundef %1, i32 noundef %2) #0 {
  %4 = alloca ptr, align 8
  %5 = alloca ptr, align 8
  %6 = alloca i32, align 4
  store ptr %0, ptr %4, align 8, !tbaa !27
  store ptr %1, ptr %5, align 8, !tbaa !21
  store i32 %2, ptr %6, align 4, !tbaa !3
  %7 = load ptr, ptr %4, align 8, !tbaa !27
  %8 = load ptr, ptr %5, align 8, !tbaa !21
  %9 = load i32, ptr %6, align 4, !tbaa !3
  %10 = zext i32 %9 to i64
  %11 = call i32 @verify_stateless_cookie_callback(ptr noundef %7, ptr noundef %8, i64 noundef %10)
  ret i32 %11
}