; Function Attrs: nounwind uwtable
define range(i32 0, 2) i32 @verify_cookie_callback(ptr noundef %0, ptr noundef readonly captures(none) %1, i32 noundef %2) local_unnamed_addr #0 {
  %4 = alloca [64 x i8], align 16
  %5 = alloca i64, align 8
  %6 = zext i32 %2 to i64
  call void @llvm.lifetime.start.p0(i64 64, ptr nonnull %4) #6
  call void @llvm.lifetime.start.p0(i64 8, ptr nonnull %5) #6
  %.b.i = load i1, ptr @cookie_initialized, align 4
  br i1 %.b.i, label %7, label %13

7:                                                ; preds = %3
  %8 = call i32 @generate_stateless_cookie_callback(ptr noundef %0, ptr noundef nonnull %4, ptr noundef nonnull %5)
  %.not.i = icmp ne i32 %8, 0
  %9 = load i64, ptr %5, align 8
  %10 = icmp eq i64 %9, %6
  %or.cond.i = select i1 %.not.i, i1 %10, i1 false
  br i1 %or.cond.i, label %11, label %13

11:                                               ; preds = %7
  %bcmp.i = call i32 @bcmp(ptr nonnull %4, ptr readonly %1, i64 %6)
  %12 = icmp eq i32 %bcmp.i, 0
  br i1 %12, label %verify_stateless_cookie_callback.exit, label %13

13:                                               ; preds = %11, %7, %3
  br label %verify_stateless_cookie_callback.exit

verify_stateless_cookie_callback.exit:            ; preds = %11, %13
  %.0.i = phi i32 [ 0, %13 ], [ 1, %11 ]
  call void @llvm.lifetime.end.p0(i64 8, ptr nonnull %5) #6
  call void @llvm.lifetime.end.p0(i64 64, ptr nonnull %4) #6
  ret i32 %.0.i
}